; Function Attrs: nounwind uwtable
define internal fastcc noundef ptr @_readVariableShowStmt() unnamed_addr #0 {
  %1 = alloca i32, align 4
  %2 = tail call noundef ptr @palloc0(i64 noundef 16) #10
  store i32 158, ptr %2, align 4
  call void @llvm.lifetime.start.p0(i64 4, ptr nonnull %1) #10
  %3 = call ptr @pg_strtok(ptr noundef nonnull %1) #10
  %4 = call ptr @pg_strtok(ptr noundef nonnull %1) #10
  %5 = load i32, ptr %1, align 4
  switch i32 %5, label %15 [
    i32 0, label %nullable_string.exit
    i32 2, label %6
  ]

6:                                                ; preds = %0
  %7 = load i8, ptr %4, align 1
  %8 = icmp eq i8 %7, 34
  br i1 %8, label %9, label %15

9:                                                ; preds = %6
  %10 = getelementptr inbounds nuw i8, ptr %4, i64 1
  %11 = load i8, ptr %10, align 1
  %12 = icmp eq i8 %11, 34
  br i1 %12, label %13, label %15

13:                                               ; preds = %9
  %14 = call ptr @pstrdup(ptr noundef nonnull @.str.326) #10
  br label %nullable_string.exit

15:                                               ; preds = %9, %6, %0
  %16 = call ptr @debackslash(ptr noundef %4, i32 noundef %5) #10
  br label %nullable_string.exit

nullable_string.exit:                             ; preds = %0, %13, %15
  %.0.i = phi ptr [ %14, %13 ], [ %16, %15 ], [ null, %0 ]
  %17 = getelementptr inbounds nuw i8, ptr %2, i64 8
  store ptr %.0.i, ptr %17, align 8
  call void @llvm.lifetime.end.p0(i64 4, ptr nonnull %1) #10
  ret ptr %2
}